target datalayout = "e-m:e-p270:32:32-p271:32:32-p272:64:64-i64:64-i128:128-f80:128-n8:16:32:64-S128"
target triple = "x86_64-unknown-linux-gnu"

%struct.ecc_set_type = type { i32, i32, ptr, ptr, ptr, ptr, ptr, ptr, ptr, ptr, i32, i32, i32 }

; Function Attrs: nounwind uwtable
define i32 @wc_ecc_get_curve_idx_from_name(ptr noundef %curveName) #0 {
entry:
  %retval = alloca i32, align 4
  %curveName.addr = alloca ptr, align 8
  %curve_idx = alloca i32, align 4
  store ptr %curveName, ptr %curveName.addr, align 8
  %0 = load ptr, ptr %curveName.addr, align 8
  %cmp = icmp eq ptr %0, null
  br i1 %cmp, label %if.then, label %if.end

if.then:                                          ; preds = %entry
  store i32 -173, ptr %retval, align 4
  br label %return

if.end:                                           ; preds = %entry
  store i32 0, ptr %curve_idx, align 4
  br label %for.cond

for.cond:                                         ; preds = %for.inc, %if.end
  %1 = load i32, ptr %curve_idx, align 4
  %idxprom = sext i32 %1 to i64
  %arrayidx = getelementptr inbounds [6 x %struct.ecc_set_type], ptr @ecc_sets, i64 0, i64 %idxprom
  %size = getelementptr inbounds %struct.ecc_set_type, ptr %arrayidx, i32 0, i32 0
  %2 = load i32, ptr %size, align 8
  %cmp1 = icmp ne i32 %2, 0
  br i1 %cmp1, label %for.body, label %for.end

for.body:                                         ; preds = %for.cond
  %3 = load i32, ptr %curve_idx, align 4
  %idxprom2 = sext i32 %3 to i64
  %arrayidx3 = getelementptr inbounds [6 x %struct.ecc_set_type], ptr @ecc_sets, i64 0, i64 %idxprom2
  %name = getelementptr inbounds %struct.ecc_set_type, ptr %arrayidx3, i32 0, i32 2
  %4 = load ptr, ptr %name, align 8
  %tobool = icmp ne ptr %4, null
  br i1 %tobool, label %land.lhs.true, label %if.end9

land.lhs.true:                                    ; preds = %for.body
  %5 = load i32, ptr %curve_idx, align 4
  %idxprom4 = sext i32 %5 to i64
  %arrayidx5 = getelementptr inbounds [6 x %struct.ecc_set_type], ptr @ecc_sets, i64 0, i64 %idxprom4
  %name6 = getelementptr inbounds %struct.ecc_set_type, ptr %arrayidx5, i32 0, i32 2
  %6 = load ptr, ptr %name6, align 8
  %7 = load ptr, ptr %curveName.addr, align 8
  %call = call i32 @strcasecmp(ptr noundef %6, ptr noundef %7) #6
  %cmp7 = icmp eq i32 %call, 0
  br i1 %cmp7, label %if.then8, label %if.end9

if.then8:                                         ; preds = %land.lhs.true
  br label %for.end

if.end9:                                          ; preds = %land.lhs.true, %for.body
  br label %for.inc

for.inc:                                          ; preds = %if.end9
  %8 = load i32, ptr %curve_idx, align 4
  %inc = add nsw i32 %8, 1
  store i32 %inc, ptr %curve_idx, align 4
  br label %for.cond, !llvm.loop !13

for.end:                                          ; preds = %if.then8, %for.cond
  %9 = load i32, ptr %curve_idx, align 4
  %idxprom10 = sext i32 %9 to i64
  %arrayidx11 = getelementptr inbounds [6 x %struct.ecc_set_type], ptr @ecc_sets, i64 0, i64 %idxprom10
  %size12 = getelementptr inbounds %struct.ecc_set_type, ptr %arrayidx11, i32 0, i32 0
  %10 = load i32, ptr %size12, align 8
  %cmp13 = icmp eq i32 %10, 0
  br i1 %cmp13, label %if.then14, label %if.end15

if.then14:                                        ; preds = %for.end
  br label %do.body

do.body:                                          ; preds = %if.then14
  br label %do.end

do.end:                                           ; preds = %do.body
  store i32 -1, ptr %retval, align 4
  br label %return

if.end15:                                         ; preds = %for.end
  %11 = load i32, ptr %curve_idx, align 4
  store i32 %11, ptr %retval, align 4
  br label %return

return:                                           ; preds = %if.end15, %do.end, %if.then
  %12 = load i32, ptr %retval, align 4
  ret i32 %12
}