; Function Attrs: nofree nounwind memory(read) uwtable
define i32 @wc_ecc_get_curve_idx_from_name(ptr noundef readonly %curveName) local_unnamed_addr #6 {
entry:
  %cmp = icmp eq ptr %curveName, null
  br i1 %cmp, label %return, label %for.body

for.body:                                         ; preds = %entry, %for.inc
  %indvars.iv = phi i64 [ %indvars.iv.next, %for.inc ], [ 0, %entry ]
  %arrayidx8 = phi ptr [ %arrayidx, %for.inc ], [ @ecc_sets, %entry ]
  %name = getelementptr inbounds nuw i8, ptr %arrayidx8, i64 8
  %0 = load ptr, ptr %name, align 8
  %tobool.not = icmp eq ptr %0, null
  br i1 %tobool.not, label %for.inc, label %land.lhs.true

land.lhs.true:                                    ; preds = %for.body
  %call = tail call i32 @strcasecmp(ptr noundef nonnull %0, ptr noundef nonnull %curveName) #20
  %cmp7 = icmp eq i32 %call, 0
  br i1 %cmp7, label %return.loopexit.split.loop.exit, label %for.inc

for.inc:                                          ; preds = %for.body, %land.lhs.true
  %indvars.iv.next = add nuw nsw i64 %indvars.iv, 1
  %arrayidx = getelementptr inbounds nuw [6 x %struct.ecc_set_type], ptr @ecc_sets, i64 0, i64 %indvars.iv.next
  %exitcond = icmp eq i64 %indvars.iv.next, 5
  br i1 %exitcond, label %return, label %for.body, !llvm.loop !12

return.loopexit.split.loop.exit:                  ; preds = %land.lhs.true
  %1 = trunc nuw nsw i64 %indvars.iv to i32
  br label %return

return:                                           ; preds = %for.inc, %return.loopexit.split.loop.exit, %entry
  %retval.0 = phi i32 [ -173, %entry ], [ %1, %return.loopexit.split.loop.exit ], [ -1, %for.inc ]
  ret i32 %retval.0
}